; Function Attrs: mustprogress uwtable
define hidden noundef i64 @_ZN6Assimp3FBX15ParseTokenAsDimERKNS0_5TokenE(ptr noundef nonnull align 8 dereferenceable(36) %t) local_unnamed_addr #3 personality ptr @__gxx_personality_v0 {
entry:
  %length.i = alloca i32, align 4
  %out.i = alloca ptr, align 8
  %ref.tmp = alloca %"class.std::__cxx11::basic_string", align 8
  %ref.tmp1 = alloca %"class.std::allocator.5", align 1
  call void @llvm.lifetime.start.p0(i64 4, ptr nonnull %length.i)
  call void @llvm.lifetime.start.p0(i64 8, ptr nonnull %out.i)
  %type.i.i = getelementptr inbounds i8, ptr %t, i64 16
  %0 = load i32, ptr %type.i.i, align 8
  %cmp.not.i = icmp eq i32 %0, 2
  br i1 %cmp.not.i, label %if.end.i, label %if.then

if.end.i:                                         ; preds = %entry
  %column.i.i = getelementptr inbounds i8, ptr %t, i64 32
  %1 = load i32, ptr %column.i.i, align 8
  %cmp.i.i = icmp eq i32 %1, -1
  %2 = load ptr, ptr %t, align 8
  %3 = load i8, ptr %2, align 1
  br i1 %cmp.i.i, label %if.then2.i, label %if.end9.i

if.then2.i:                                       ; preds = %if.end.i
  %cmp4.not.i = icmp eq i8 %3, 76
  br i1 %cmp4.not.i, label %if.end6.i, label %if.then

if.end6.i:                                        ; preds = %if.then2.i
  %add.ptr.i = getelementptr inbounds i8, ptr %2, i64 1
  %add.ptr.val.i = load i64, ptr %add.ptr.i, align 1
  br label %if.end

if.end9.i:                                        ; preds = %if.end.i
  %cmp12.not.i = icmp eq i8 %3, 42
  br i1 %cmp12.not.i, label %if.end14.i, label %if.then

if.end14.i:                                       ; preds = %if.end9.i
  %send.i15.i = getelementptr inbounds i8, ptr %t, i64 8
  %4 = load ptr, ptr %send.i15.i, align 8
  %sub.ptr.lhs.cast.i = ptrtoint ptr %4 to i64
  %sub.ptr.rhs.cast.i = ptrtoint ptr %2 to i64
  %sub.ptr.sub.i = sub i64 %sub.ptr.lhs.cast.i, %sub.ptr.rhs.cast.i
  %conv17.i = trunc i64 %sub.ptr.sub.i to i32
  store i32 %conv17.i, ptr %length.i, align 4
  %cmp18.i = icmp eq i32 %conv17.i, 0
  br i1 %cmp18.i, label %if.then, label %if.end20.i

if.end20.i:                                       ; preds = %if.end14.i
  store ptr null, ptr %out.i, align 8
  %add.ptr23.i = getelementptr inbounds i8, ptr %2, i64 1
  %call24.i = call noundef i64 @_ZN6Assimp12strtoul10_64I17DeadlyImportErrorEEmPKcPS3_Pj(ptr noundef nonnull %add.ptr23.i, ptr noundef nonnull %out.i, ptr noundef nonnull %length.i)
  %5 = load ptr, ptr %out.i, align 8
  %6 = load ptr, ptr %send.i15.i, align 8
  %cmp26.i = icmp ugt ptr %5, %6
  br i1 %cmp26.i, label %if.then, label %if.end

if.then:                                          ; preds = %if.end20.i, %entry, %if.then2.i, %if.end9.i, %if.end14.i
  %err.0.ph = phi ptr [ @.str.13, %if.end14.i ], [ @.str.12, %if.end9.i ], [ @.str.10, %if.then2.i ], [ @.str.9, %entry ], [ @.str.14, %if.end20.i ]
  call void @llvm.lifetime.end.p0(i64 4, ptr nonnull %length.i)
  call void @llvm.lifetime.end.p0(i64 8, ptr nonnull %out.i)
  call void @_ZNSaIcEC1Ev(ptr noundef nonnull align 1 dereferenceable(1) %ref.tmp1) #21
  invoke void @_ZNSt7__cxx1112basic_stringIcSt11char_traitsIcESaIcEEC2IS3_EEPKcRKS3_(ptr noundef nonnull align 8 dereferenceable(32) %ref.tmp, ptr noundef nonnull %err.0.ph, ptr noundef nonnull align 1 dereferenceable(1) %ref.tmp1)
          to label %invoke.cont unwind label %lpad

invoke.cont:                                      ; preds = %if.then
  invoke fastcc void @_ZN12_GLOBAL__N_110ParseErrorERKNSt7__cxx1112basic_stringIcSt11char_traitsIcESaIcEEERKN6Assimp3FBX5TokenE(ptr noundef nonnull align 8 dereferenceable(32) %ref.tmp, ptr noundef nonnull align 8 dereferenceable(36) %t) #22
          to label %invoke.cont3 unwind label %lpad2

invoke.cont3:                                     ; preds = %invoke.cont
  unreachable

lpad:                                             ; preds = %if.then
  %7 = landingpad { ptr, i32 }
          cleanup
  br label %ehcleanup

lpad2:                                            ; preds = %invoke.cont
  %8 = landingpad { ptr, i32 }
          cleanup
  call void @_ZNSt7__cxx1112basic_stringIcSt11char_traitsIcESaIcEED1Ev(ptr noundef nonnull align 8 dereferenceable(32) %ref.tmp) #21
  br label %ehcleanup

ehcleanup:                                        ; preds = %lpad2, %lpad
  %.pn = phi { ptr, i32 } [ %8, %lpad2 ], [ %7, %lpad ]
  call void @_ZNSaIcED1Ev(ptr noundef nonnull align 1 dereferenceable(1) %ref.tmp1) #21
  resume { ptr, i32 } %.pn

if.end:                                           ; preds = %if.end20.i, %if.end6.i
  %retval.0.i = phi i64 [ %add.ptr.val.i, %if.end6.i ], [ %call24.i, %if.end20.i ]
  call void @llvm.lifetime.end.p0(i64 4, ptr nonnull %length.i)
  call void @llvm.lifetime.end.p0(i64 8, ptr nonnull %out.i)
  ret i64 %retval.0.i
}